target datalayout = "e-m:e-p270:32:32-p271:32:32-p272:64:64-i64:64-i128:128-f80:128-n8:16:32:64-S128"
target triple = "x86_64-pc-linux-gnu"

%"class.std::vector" = type { %"struct.std::_Vector_base" }
%"struct.std::_Vector_base" = type { %"struct.std::_Vector_base<const Variable *, std::allocator<const Variable *>>::_Vector_impl" }
%"struct.std::_Vector_base<const Variable *, std::allocator<const Variable *>>::_Vector_impl" = type { %"struct.std::_Vector_base<const Variable *, std::allocator<const Variable *>>::_Vector_impl_data" }
%"struct.std::_Vector_base<const Variable *, std::allocator<const Variable *>>::_Vector_impl_data" = type { ptr, ptr, ptr }
%class.FactPointTo = type { %class.Fact.base, ptr, %"class.std::vector" }
%class.Fact.base = type <{ ptr, i32 }>

; Function Attrs: mustprogress nounwind uwtable
define linkonce_odr dso_local noundef nonnull align 8 dereferenceable(24) ptr @_ZNK11FactPointTo17get_point_to_varsEv(ptr noundef nonnull align 8 dereferenceable(48) %0) #5 comdat align 2 {
  %2 = alloca ptr, align 8
  store ptr %0, ptr %2, align 8, !tbaa !26
  %3 = load ptr, ptr %2, align 8
  %4 = getelementptr inbounds nuw %class.FactPointTo, ptr %3, i32 0, i32 2
  ret ptr %4
}

; Function Attrs: mustprogress uwtable
define dso_local noundef zeroext i1 @_ZNK11FactPointTo5implyERK4Fact(ptr noundef nonnull align 8 dereferenceable(48) %0, ptr noundef nonnull align 8 dereferenceable(12) %1) unnamed_addr #6 align 2 {
  %3 = alloca i1, align 1
  %4 = alloca ptr, align 8
  %5 = alloca ptr, align 8
  %6 = alloca ptr, align 8
  %7 = alloca i32, align 4
  store ptr %0, ptr %4, align 8, !tbaa !26
  store ptr %1, ptr %5, align 8, !tbaa !61
  %8 = load ptr, ptr %4, align 8
  %9 = load ptr, ptr %5, align 8, !tbaa !61
  %10 = load ptr, ptr %8, align 8, !tbaa !49
  %11 = getelementptr inbounds ptr, ptr %10, i64 11
  %12 = load ptr, ptr %11, align 8
  %13 = call noundef zeroext i1 %12(ptr noundef nonnull align 8 dereferenceable(12) %8, ptr noundef nonnull align 8 dereferenceable(12) %9)
  br i1 %13, label %14, label %25

14:                                               ; preds = %2
  call void @llvm.lifetime.start.p0(i64 8, ptr %6) #3
  %15 = load ptr, ptr %5, align 8, !tbaa !61
  store ptr %15, ptr %6, align 8, !tbaa !26
  %16 = load ptr, ptr %6, align 8, !tbaa !26
  %17 = call noundef nonnull align 8 dereferenceable(24) ptr @_ZNK11FactPointTo17get_point_to_varsEv(ptr noundef nonnull align 8 dereferenceable(48) %16)
  %18 = getelementptr inbounds nuw %class.FactPointTo, ptr %8, i32 0, i32 2
  %19 = call noundef zeroext i1 @_Z17sub_variable_setsRKSt6vectorIPK8VariableSaIS2_EES6_(ptr noundef nonnull align 8 dereferenceable(24) %17, ptr noundef nonnull align 8 dereferenceable(24) %18)
  br i1 %19, label %20, label %21

20:                                               ; preds = %14
  store i1 true, ptr %3, align 1
  store i32 1, ptr %7, align 4
  br label %22

21:                                               ; preds = %14
  store i32 0, ptr %7, align 4
  br label %22

22:                                               ; preds = %21, %20
  call void @llvm.lifetime.end.p0(i64 8, ptr %6) #3
  %23 = load i32, ptr %7, align 4
  switch i32 %23, label %28 [
    i32 0, label %24
    i32 1, label %26
  ]

24:                                               ; preds = %22
  br label %25

25:                                               ; preds = %24, %2
  store i1 false, ptr %3, align 1
  br label %26

26:                                               ; preds = %25, %22
  %27 = load i1, ptr %3, align 1
  ret i1 %27

28:                                               ; preds = %22
  unreachable
}